; Function Attrs: mustprogress nounwind uwtable
define dso_local void @_ZN5clang14TextNodeDumper16VisitTypedefTypeEPKNS_11TypedefTypeE(ptr noundef nonnull align 8 dereferenceable(1168) %0, ptr nocapture noundef readonly %1) local_unnamed_addr #0 align 2 {
  %3 = getelementptr inbounds nuw i8, ptr %1, i64 32
  %4 = load ptr, ptr %3, align 16
  tail call void @_ZN5clang14TextNodeDumper11dumpDeclRefEPKNS_4DeclEN4llvm9StringRefE(ptr noundef nonnull align 8 dereferenceable(1168) %0, ptr noundef %4, ptr null, i64 0)
  %5 = getelementptr inbounds nuw i8, ptr %1, i64 16
  %6 = load i24, ptr %5, align 16
  %7 = and i24 %6, 524288
  %.not.i = icmp eq i24 %7, 0
  br i1 %.not.i, label %_ZN4llvm11raw_ostreamlsEPKc.exit, label %8

8:                                                ; preds = %2
  %9 = getelementptr inbounds nuw i8, ptr %0, i64 1096
  %10 = load ptr, ptr %9, align 8
  %11 = getelementptr inbounds nuw i8, ptr %10, i64 24
  %12 = load ptr, ptr %11, align 8
  %13 = getelementptr inbounds nuw i8, ptr %10, i64 32
  %14 = load ptr, ptr %13, align 8
  %15 = ptrtoint ptr %12 to i64
  %16 = ptrtoint ptr %14 to i64
  %17 = sub i64 %15, %16
  %18 = icmp ult i64 %17, 10
  br i1 %18, label %19, label %21

19:                                               ; preds = %8
  %20 = tail call noundef nonnull align 8 dereferenceable(48) ptr @_ZN4llvm11raw_ostream5writeEPKcm(ptr noundef nonnull align 8 dereferenceable(48) %10, ptr noundef nonnull @.str.688, i64 noundef 10) #18
  br label %_ZN4llvm11raw_ostreamlsEPKc.exit

21:                                               ; preds = %8
  tail call void @llvm.memcpy.p0.p0.i64(ptr noundef nonnull align 1 dereferenceable(10) %14, ptr noundef nonnull align 1 dereferenceable(10) @.str.688, i64 10, i1 false)
  %22 = load ptr, ptr %13, align 8
  %23 = getelementptr inbounds i8, ptr %22, i64 10
  store ptr %23, ptr %13, align 8
  br label %_ZN4llvm11raw_ostreamlsEPKc.exit

_ZN4llvm11raw_ostreamlsEPKc.exit:                 ; preds = %21, %19, %2
  ret void
}